; Function Attrs: mustprogress nounwind uwtable
define dso_local void @_ZN4llvm13SimpleDDGNodeC2ERKS0_(ptr noundef nonnull align 8 dereferenceable(88) %0, ptr noundef nonnull align 8 dereferenceable(88) %1) unnamed_addr #0 align 2 {
  %3 = getelementptr inbounds i8, ptr %0, i64 8
  %4 = getelementptr inbounds i8, ptr %1, i64 8
  tail call void @_ZN4llvm9SetVectorIPNS_7DDGEdgeENS_11SmallVectorIS2_Lj0EEENS_8DenseSetIS2_NS_12DenseMapInfoIS2_vEEEELj0EEC2ERKS9_(ptr noundef nonnull align 8 dereferenceable(40) %3, ptr noundef nonnull align 8 dereferenceable(40) %4)
  store ptr getelementptr inbounds inrange(-16, 16) (i8, ptr @_ZTVN4llvm7DDGNodeE, i64 16), ptr %0, align 8
  %5 = getelementptr inbounds nuw i8, ptr %0, i64 48
  %6 = getelementptr inbounds nuw i8, ptr %1, i64 48
  %7 = load i32, ptr %6, align 8
  store i32 %7, ptr %5, align 8
  store ptr getelementptr inbounds inrange(-16, 16) (i8, ptr @_ZTVN4llvm13SimpleDDGNodeE, i64 16), ptr %0, align 8
  %8 = getelementptr inbounds nuw i8, ptr %0, i64 56
  %9 = getelementptr inbounds nuw i8, ptr %1, i64 56
  %10 = getelementptr inbounds i8, ptr %0, i64 72
  tail call void @_ZN4llvm15SmallVectorBaseIjEC2EPvm(ptr noundef nonnull align 8 dereferenceable(16) %8, ptr noundef nonnull %10, i64 noundef 2) #23
  %11 = tail call noundef zeroext i1 @_ZNK4llvm15SmallVectorBaseIjE5emptyEv(ptr noundef nonnull align 8 dereferenceable(16) %9) #23
  br i1 %11, label %_ZN4llvm11SmallVectorIPNS_11InstructionELj2EEC2ERKS3_.exit, label %12

12:                                               ; preds = %2
  %13 = tail call noundef nonnull align 8 dereferenceable(16) ptr @_ZN4llvm15SmallVectorImplIPNS_11InstructionEEaSERKS3_(ptr noundef nonnull align 8 dereferenceable(16) %8, ptr noundef nonnull align 8 dereferenceable(16) %9)
  br label %_ZN4llvm11SmallVectorIPNS_11InstructionELj2EEC2ERKS3_.exit

_ZN4llvm11SmallVectorIPNS_11InstructionELj2EEC2ERKS3_.exit: ; preds = %2, %12
  ret void
}